Certificate:
    Data:
        Version: 3 (0x2)
        Serial Number: 4096 (0x1000)
    Signature Algorithm: sha256WithRSAEncryption
        Issuer: C=US, O=nillo.net, CN=rhvm-01.nillo.net.31062
        Validity
            Not Before: Feb 26 17:14:49 2018 GMT
            Not After : Feb 25 17:14:49 2028 GMT
        Subject: C=US, O=nillo.net, CN=rhvm-01.nillo.net.31062
        Subject Public Key Info:
            Public Key Algorithm: rsaEncryption
                Public-Key: (2048 bit)
                Modulus:
                    00:ce:37:2c:f6:8f:8b:50:03:64:c2:90:da:53:0e:
                    32:40:de:c2:4e:65:5f:22:0d:37:79:f2:6e:0f:6e:
                    3d:d1:f0:b0:14:3a:8b:b3:65:5b:9c:1b:6a:8b:68:
                    a9:d9:a3:3c:f1:4e:50:f6:44:bb:f0:0e:07:e3:03:
                    59:d7:9c:77:bb:11:cd:61:6f:77:f5:5d:42:58:24:
                    1d:7b:65:84:b7:79:37:36:55:e4:27:64:fd:76:96:
                    e2:eb:35:93:73:6c:01:bb:9e:86:8e:47:cc:bf:86:
                    80:bb:d0:4f:2b:49:cc:72:43:03:a2:fd:12:0e:1c:
                    55:12:7c:33:06:d2:7c:b2:d4:05:11:15:a8:3a:e2:
                    e7:f1:23:a3:12:b8:ea:9f:3f:c5:2e:fe:9a:71:f8:
                    43:ed:f5:98:01:b4:69:b7:fd:32:26:75:61:df:59:
                    53:d6:3e:43:4e:03:87:c2:4e:ae:0a:1f:fb:0a:59:
                    9e:0d:2b:71:24:a9:fb:03:e0:b9:87:b4:59:0f:9e:
                    b4:6f:c9:7f:ff:de:af:57:48:3a:29:d8:0a:80:78:
                    fd:f1:73:90:3a:0a:dc:4a:92:2a:2c:4a:1a:0e:e4:
                    bb:64:e6:dd:ea:0c:f0:ce:a9:57:1f:8a:2b:05:ac:
                    9f:c0:97:de:23:84:b5:e8:e7:e8:a5:17:44:5f:cb:
                    a3:af
                Exponent: 65537 (0x10001)
        X509v3 extensions:
            X509v3 Subject Key Identifier: 
                70:DA:DA:6B:E7:E1:8E:8F:04:C0:23:36:14:26:EF:31:E8:3C:A1:44
            X509v3 Authority Key Identifier: 
                keyid:70:DA:DA:6B:E7:E1:8E:8F:04:C0:23:36:14:26:EF:31:E8:3C:A1:44
                DirName:/C=US/O=nillo.net/CN=rhvm-01.nillo.net.31062
                serial:10:00

            X509v3 Basic Constraints: critical
                CA:TRUE
            X509v3 Key Usage: critical
                Certificate Sign, CRL Sign
    Signature Algorithm: sha256WithRSAEncryption
         6d:f0:f9:f3:c7:07:a8:bb:76:e4:22:bf:a9:8a:8b:c5:af:6d:
         30:2e:4b:06:a5:6f:6d:61:5b:ee:d9:55:ad:08:a6:53:53:56:
         b0:08:02:d0:bd:23:c0:ef:04:18:ae:58:78:fc:f3:06:6a:b6:
         7f:fd:a2:cb:29:82:8f:f4:ed:74:a1:66:01:63:aa:cc:55:6f:
         2f:64:59:fd:8a:ce:9e:17:ce:b5:a8:cc:ee:ba:d5:2b:23:c2:
         68:88:e1:cf:7f:2f:21:88:4d:23:31:e1:e2:4f:a7:d8:b4:3a:
         e7:13:d2:86:70:80:be:87:ea:5b:d3:c1:83:85:d1:3f:c3:79:
         b0:19:f4:d6:59:20:75:f2:44:52:91:cc:b9:67:5c:ec:82:fa:
         9a:9d:05:21:a0:f2:1f:4a:fc:e7:0a:0f:eb:38:39:41:4d:ab:
         fc:6d:b2:75:34:9a:e8:3a:2e:09:d3:ff:a1:06:48:b3:54:4b:
         fe:97:d8:b7:de:72:14:86:ad:de:25:89:a4:35:75:ab:b4:ef:
         6d:5d:a4:6c:fb:2c:8f:b9:96:6b:79:4b:e8:49:d2:d2:0e:24:
         2b:a9:cc:b8:d5:9f:fa:11:39:ef:13:24:99:80:6d:78:2e:d2:
         63:b4:c2:6a:6f:57:58:da:f7:a9:98:31:b8:a1:24:ca:64:ba:
         ec:da:63:39
-----BEGIN CERTIFICATE-----
MIIDtDCCApygAwIBAgICEAAwDQYJKoZIhvcNAQELBQAwQzELMAkGA1UEBhMCVVMx
EjAQBgNVBAoMCW5pbGxvLm5ldDEgMB4GA1UEAwwXcmh2bS0wMS5uaWxsby5uZXQu
MzEwNjIwHhcNMTgwMjI2MTcxNDQ5WhcNMjgwMjI1MTcxNDQ5WjBDMQswCQYDVQQG
EwJVUzESMBAGA1UECgwJbmlsbG8ubmV0MSAwHgYDVQQDDBdyaHZtLTAxLm5pbGxv
Lm5ldC4zMTA2MjCCASIwDQYJKoZIhvcNAQEBBQADggEPADCCAQoCggEBAM43LPaP
i1ADZMKQ2lMOMkDewk5lXyINN3nybg9uPdHwsBQ6i7NlW5wbaotoqdmjPPFOUPZE
u/AOB+MDWdecd7sRzWFvd/VdQlgkHXtlhLd5NzZV5Cdk/XaW4us1k3NsAbueho5H
zL+GgLvQTytJzHJDA6L9Eg4cVRJ8MwbSfLLUBREVqDri5/EjoxK46p8/xS7+mnH4
Q+31mAG0abf9MiZ1Yd9ZU9Y+Q04Dh8JOrgof+wpZng0rcSSp+wPguYe0WQ+etG/J
f//er1dIOinYCoB4/fFzkDoK3EqSKixKGg7ku2Tm3eoM8M6pVx+KKwWsn8CX3iOE
tejn6KUXRF/Lo68CAwEAAaOBsTCBrjAdBgNVHQ4EFgQUcNraa+fhjo8EwCM2FCbv
Meg8oUQwbAYDVR0jBGUwY4AUcNraa+fhjo8EwCM2FCbvMeg8oUShR6RFMEMxCzAJ
BgNVBAYTAlVTMRIwEAYDVQQKDAluaWxsby5uZXQxIDAeBgNVBAMMF3Jodm0tMDEu
bmlsbG8ubmV0LjMxMDYyggIQADAPBgNVHRMBAf8EBTADAQH/MA4GA1UdDwEB/wQE
AwIBBjANBgkqhkiG9w0BAQsFAAOCAQEAbfD588cHqLt25CK/qYqLxa9tMC5LBqVv
bWFb7tlVrQimU1NWsAgC0L0jwO8EGK5YePzzBmq2f/2iyymCj/TtdKFmAWOqzFVv
L2RZ/YrOnhfOtajM7rrVKyPCaIjhz38vIYhNIzHh4k+n2LQ65xPShnCAvofqW9PB
g4XRP8N5sBn01lkgdfJEUpHMuWdc7IL6mp0FIaDyH0r85woP6zg5QU2r/G2ydTSa
6DouCdP/oQZIs1RL/pfYt95yFIat3iWJpDV1q7TvbV2kbPssj7mWa3lL6EnS0g4k
K6nMuNWf+hE57xMkmYBteC7SY7TCam9XWNr3qZgxuKEkymS67NpjOQ==
-----END CERTIFICATE-----
